target datalayout = "e-m:e-p270:32:32-p271:32:32-p272:64:64-i64:64-i128:128-f80:128-n8:16:32:64-S128"
target triple = "x86_64-pc-linux-gnu"

%struct.test_fixture = type { ptr, ptr, i32, i32, i32, ptr, i32, ptr }

@libctx = internal global ptr null, align 8
@.str.14 = private unnamed_addr constant [31 x i8] c"../openssl/test/cmp_msg_test.c\00", align 1
@ref = internal global [15 x i8] zeroinitializer, align 1
@.str.46 = private unnamed_addr constant [43 x i8] c"fixture = OPENSSL_zalloc(sizeof(*fixture))\00", align 1
@.str.47 = private unnamed_addr constant [50 x i8] c"fixture->cmp_ctx = OSSL_CMP_CTX_new(libctx, NULL)\00", align 1
@.str.48 = private unnamed_addr constant [46 x i8] c"SET_OPT_UNPROTECTED_SEND(fixture->cmp_ctx, 1)\00", align 1
@.str.49 = private unnamed_addr constant [69 x i8] c"OSSL_CMP_CTX_set1_referenceValue(fixture->cmp_ctx, ref, sizeof(ref))\00", align 1

; Function Attrs: nounwind uwtable
define internal void @tear_down(ptr noundef %0) #0 {
  %2 = alloca ptr, align 8
  store ptr %0, ptr %2, align 8, !tbaa !17
  %3 = load ptr, ptr %2, align 8, !tbaa !17
  %4 = getelementptr inbounds nuw %struct.test_fixture, ptr %3, i32 0, i32 1
  %5 = load ptr, ptr %4, align 8, !tbaa !28
  call void @OSSL_CMP_CTX_free(ptr noundef %5)
  %6 = load ptr, ptr %2, align 8, !tbaa !17
  %7 = getelementptr inbounds nuw %struct.test_fixture, ptr %6, i32 0, i32 5
  %8 = load ptr, ptr %7, align 8, !tbaa !37
  call void @OSSL_CMP_MSG_free(ptr noundef %8)
  %9 = load ptr, ptr %2, align 8, !tbaa !17
  %10 = getelementptr inbounds nuw %struct.test_fixture, ptr %9, i32 0, i32 7
  %11 = load ptr, ptr %10, align 8, !tbaa !30
  call void @OSSL_CMP_PKISI_free(ptr noundef %11)
  %12 = load ptr, ptr %2, align 8, !tbaa !17
  call void @CRYPTO_free(ptr noundef %12, ptr noundef @.str.14, i32 noundef 43)
  ret void
}

; Function Attrs: nounwind uwtable
define internal ptr @set_up(ptr noundef %0) #0 {
  %2 = alloca ptr, align 8
  %3 = alloca ptr, align 8
  %4 = alloca ptr, align 8
  %5 = alloca i32, align 4
  store ptr %0, ptr %3, align 8, !tbaa !15
  call void @llvm.lifetime.start.p0(i64 8, ptr %4) #4
  %6 = call noalias ptr @CRYPTO_zalloc(i64 noundef 56, ptr noundef @.str.14, i32 noundef 52)
  store ptr %6, ptr %4, align 8, !tbaa !17
  %7 = call i32 @test_ptr(ptr noundef @.str.14, i32 noundef 52, ptr noundef @.str.46, ptr noundef %6)
  %8 = icmp ne i32 %7, 0
  br i1 %8, label %10, label %9

9:                                                ; preds = %1
  store ptr null, ptr %2, align 8
  store i32 1, ptr %5, align 4
  br label %42

10:                                               ; preds = %1
  %11 = load ptr, ptr %3, align 8, !tbaa !15
  %12 = load ptr, ptr %4, align 8, !tbaa !17
  %13 = getelementptr inbounds nuw %struct.test_fixture, ptr %12, i32 0, i32 0
  store ptr %11, ptr %13, align 8, !tbaa !36
  %14 = load ptr, ptr @libctx, align 8, !tbaa !13
  %15 = call ptr @OSSL_CMP_CTX_new(ptr noundef %14, ptr noundef null)
  %16 = load ptr, ptr %4, align 8, !tbaa !17
  %17 = getelementptr inbounds nuw %struct.test_fixture, ptr %16, i32 0, i32 1
  store ptr %15, ptr %17, align 8, !tbaa !28
  %18 = call i32 @test_ptr(ptr noundef @.str.14, i32 noundef 56, ptr noundef @.str.47, ptr noundef %15)
  %19 = icmp ne i32 %18, 0
  br i1 %19, label %20, label %38

20:                                               ; preds = %10
  %21 = load ptr, ptr %4, align 8, !tbaa !17
  %22 = getelementptr inbounds nuw %struct.test_fixture, ptr %21, i32 0, i32 1
  %23 = load ptr, ptr %22, align 8, !tbaa !28
  %24 = call i32 @OSSL_CMP_CTX_set_option(ptr noundef %23, i32 noundef 30, i32 noundef 1)
  %25 = icmp ne i32 %24, 0
  %26 = zext i1 %25 to i32
  %27 = call i32 @test_true(ptr noundef @.str.14, i32 noundef 57, ptr noundef @.str.48, i32 noundef %26)
  %28 = icmp ne i32 %27, 0
  br i1 %28, label %29, label %38

29:                                               ; preds = %20
  %30 = load ptr, ptr %4, align 8, !tbaa !17
  %31 = getelementptr inbounds nuw %struct.test_fixture, ptr %30, i32 0, i32 1
  %32 = load ptr, ptr %31, align 8, !tbaa !28
  %33 = call i32 @OSSL_CMP_CTX_set1_referenceValue(ptr noundef %32, ptr noundef @ref, i32 noundef 15)
  %34 = icmp ne i32 %33, 0
  %35 = zext i1 %34 to i32
  %36 = call i32 @test_true(ptr noundef @.str.14, i32 noundef 59, ptr noundef @.str.49, i32 noundef %35)
  %37 = icmp ne i32 %36, 0
  br i1 %37, label %40, label %38

38:                                               ; preds = %29, %20, %10
  %39 = load ptr, ptr %4, align 8, !tbaa !17
  call void @tear_down(ptr noundef %39)
  store ptr null, ptr %2, align 8
  store i32 1, ptr %5, align 4
  br label %42

40:                                               ; preds = %29
  %41 = load ptr, ptr %4, align 8, !tbaa !17
  store ptr %41, ptr %2, align 8
  store i32 1, ptr %5, align 4
  br label %42

42:                                               ; preds = %40, %38, %9
  call void @llvm.lifetime.end.p0(i64 8, ptr %4) #4
  %43 = load ptr, ptr %2, align 8
  ret ptr %43
}