; Function Attrs: nounwind uwtable
define internal fastcc noundef ptr @set_up(ptr noundef %0) unnamed_addr #0 {
  %2 = tail call noalias ptr @CRYPTO_zalloc(i64 noundef 56, ptr noundef nonnull @.str.14, i32 noundef 52) #4
  %3 = tail call i32 @test_ptr(ptr noundef nonnull @.str.14, i32 noundef 52, ptr noundef nonnull @.str.46, ptr noundef %2) #4
  %.not = icmp eq i32 %3, 0
  br i1 %.not, label %27, label %4

4:                                                ; preds = %1
  store ptr %0, ptr %2, align 8, !tbaa !52
  %5 = load ptr, ptr @libctx, align 8, !tbaa !13
  %6 = tail call ptr @OSSL_CMP_CTX_new(ptr noundef %5, ptr noundef null) #4
  %7 = getelementptr inbounds nuw i8, ptr %2, i64 8
  store ptr %6, ptr %7, align 8, !tbaa !25
  %8 = tail call i32 @test_ptr(ptr noundef nonnull @.str.14, i32 noundef 56, ptr noundef nonnull @.str.47, ptr noundef %6) #4
  %.not8 = icmp eq i32 %8, 0
  br i1 %.not8, label %21, label %9

9:                                                ; preds = %4
  %10 = load ptr, ptr %7, align 8, !tbaa !25
  %11 = tail call i32 @OSSL_CMP_CTX_set_option(ptr noundef %10, i32 noundef 30, i32 noundef 1) #4
  %12 = icmp ne i32 %11, 0
  %13 = zext i1 %12 to i32
  %14 = tail call i32 @test_true(ptr noundef nonnull @.str.14, i32 noundef 57, ptr noundef nonnull @.str.48, i32 noundef %13) #4
  %.not9 = icmp eq i32 %14, 0
  br i1 %.not9, label %21, label %15

15:                                               ; preds = %9
  %16 = load ptr, ptr %7, align 8, !tbaa !25
  %17 = tail call i32 @OSSL_CMP_CTX_set1_referenceValue(ptr noundef %16, ptr noundef nonnull @ref, i32 noundef 15) #4
  %18 = icmp ne i32 %17, 0
  %19 = zext i1 %18 to i32
  %20 = tail call i32 @test_true(ptr noundef nonnull @.str.14, i32 noundef 59, ptr noundef nonnull @.str.49, i32 noundef %19) #4
  %.not10 = icmp eq i32 %20, 0
  br i1 %.not10, label %21, label %27

21:                                               ; preds = %15, %9, %4
  %22 = load ptr, ptr %7, align 8, !tbaa !25
  tail call void @OSSL_CMP_CTX_free(ptr noundef %22) #4
  %23 = getelementptr inbounds nuw i8, ptr %2, i64 32
  %24 = load ptr, ptr %23, align 8, !tbaa !26
  tail call void @OSSL_CMP_MSG_free(ptr noundef %24) #4
  %25 = getelementptr inbounds nuw i8, ptr %2, i64 48
  %26 = load ptr, ptr %25, align 8, !tbaa !27
  tail call void @OSSL_CMP_PKISI_free(ptr noundef %26) #4
  tail call void @CRYPTO_free(ptr noundef nonnull %2, ptr noundef nonnull @.str.14, i32 noundef 43) #4
  br label %27

27:                                               ; preds = %15, %1, %21
  %.0 = phi ptr [ null, %21 ], [ null, %1 ], [ %2, %15 ]
  ret ptr %.0
}